target datalayout = "e-m:e-p270:32:32-p271:32:32-p272:64:64-i64:64-i128:128-f80:128-n8:16:32:64-S128"
target triple = "x86_64-pc-linux-gnu"

%struct._lv_vector_path_t = type { i32, %struct._lv_array_t, %struct._lv_array_t }
%struct._lv_array_t = type { ptr, i32, i32, i32, i8 }

; Function Attrs: nounwind uwtable
define void @lv_vector_path_append_path(ptr noundef %0, ptr noundef %1) #0 {
  %3 = alloca ptr, align 8
  %4 = alloca ptr, align 8
  %5 = alloca i32, align 4
  %6 = alloca i32, align 4
  %7 = alloca i32, align 4
  %8 = alloca i32, align 4
  store ptr %0, ptr %3, align 8, !tbaa !3
  store ptr %1, ptr %4, align 8, !tbaa !3
  call void @llvm.lifetime.start.p0(i64 4, ptr %5) #7
  %9 = load ptr, ptr %3, align 8, !tbaa !3
  %10 = getelementptr inbounds nuw %struct._lv_vector_path_t, ptr %9, i32 0, i32 1
  %11 = call i32 @lv_array_size(ptr noundef %10)
  store i32 %11, ptr %5, align 4, !tbaa !12
  call void @llvm.lifetime.start.p0(i64 4, ptr %6) #7
  %12 = load ptr, ptr %4, align 8, !tbaa !3
  %13 = getelementptr inbounds nuw %struct._lv_vector_path_t, ptr %12, i32 0, i32 1
  %14 = call i32 @lv_array_size(ptr noundef %13)
  store i32 %14, ptr %6, align 4, !tbaa !12
  call void @llvm.lifetime.start.p0(i64 4, ptr %7) #7
  %15 = load ptr, ptr %3, align 8, !tbaa !3
  %16 = getelementptr inbounds nuw %struct._lv_vector_path_t, ptr %15, i32 0, i32 2
  %17 = call i32 @lv_array_size(ptr noundef %16)
  store i32 %17, ptr %7, align 4, !tbaa !12
  call void @llvm.lifetime.start.p0(i64 4, ptr %8) #7
  %18 = load ptr, ptr %4, align 8, !tbaa !3
  %19 = getelementptr inbounds nuw %struct._lv_vector_path_t, ptr %18, i32 0, i32 2
  %20 = call i32 @lv_array_size(ptr noundef %19)
  store i32 %20, ptr %8, align 4, !tbaa !12
  %21 = load ptr, ptr %3, align 8, !tbaa !3
  %22 = getelementptr inbounds nuw %struct._lv_vector_path_t, ptr %21, i32 0, i32 1
  %23 = load ptr, ptr %4, align 8, !tbaa !3
  %24 = getelementptr inbounds nuw %struct._lv_vector_path_t, ptr %23, i32 0, i32 1
  %25 = call i32 @lv_array_concat(ptr noundef %22, ptr noundef %24)
  %26 = load i32, ptr %5, align 4, !tbaa !12
  %27 = load i32, ptr %6, align 4, !tbaa !12
  %28 = add i32 %26, %27
  %29 = load ptr, ptr %3, align 8, !tbaa !3
  %30 = getelementptr inbounds nuw %struct._lv_vector_path_t, ptr %29, i32 0, i32 1
  %31 = getelementptr inbounds nuw %struct._lv_array_t, ptr %30, i32 0, i32 1
  store i32 %28, ptr %31, align 8, !tbaa !34
  %32 = load ptr, ptr %3, align 8, !tbaa !3
  %33 = getelementptr inbounds nuw %struct._lv_vector_path_t, ptr %32, i32 0, i32 2
  %34 = load ptr, ptr %4, align 8, !tbaa !3
  %35 = getelementptr inbounds nuw %struct._lv_vector_path_t, ptr %34, i32 0, i32 2
  %36 = call i32 @lv_array_concat(ptr noundef %33, ptr noundef %35)
  %37 = load i32, ptr %7, align 4, !tbaa !12
  %38 = load i32, ptr %8, align 4, !tbaa !12
  %39 = add i32 %37, %38
  %40 = load ptr, ptr %3, align 8, !tbaa !3
  %41 = getelementptr inbounds nuw %struct._lv_vector_path_t, ptr %40, i32 0, i32 2
  %42 = getelementptr inbounds nuw %struct._lv_array_t, ptr %41, i32 0, i32 1
  store i32 %39, ptr %42, align 8, !tbaa !35
  call void @llvm.lifetime.end.p0(i64 4, ptr %8) #7
  call void @llvm.lifetime.end.p0(i64 4, ptr %7) #7
  call void @llvm.lifetime.end.p0(i64 4, ptr %6) #7
  call void @llvm.lifetime.end.p0(i64 4, ptr %5) #7
  ret void
}