; Function Attrs: nounwind uwtable
define void @lv_vector_path_append_path(ptr noundef %0, ptr noundef %1) local_unnamed_addr #3 {
  %3 = getelementptr inbounds nuw i8, ptr %0, i64 8
  %4 = tail call i32 @lv_array_size(ptr noundef nonnull %3) #9
  %5 = getelementptr inbounds nuw i8, ptr %1, i64 8
  %6 = tail call i32 @lv_array_size(ptr noundef nonnull %5) #9
  %7 = getelementptr inbounds nuw i8, ptr %0, i64 32
  %8 = tail call i32 @lv_array_size(ptr noundef nonnull %7) #9
  %9 = getelementptr inbounds nuw i8, ptr %1, i64 32
  %10 = tail call i32 @lv_array_size(ptr noundef nonnull %9) #9
  %11 = tail call i32 @lv_array_concat(ptr noundef nonnull %3, ptr noundef nonnull %5) #9
  %12 = add i32 %6, %4
  %13 = getelementptr inbounds nuw i8, ptr %0, i64 16
  store i32 %12, ptr %13, align 8, !tbaa !28
  %14 = tail call i32 @lv_array_concat(ptr noundef nonnull %7, ptr noundef nonnull %9) #9
  %15 = add i32 %10, %8
  %16 = getelementptr inbounds nuw i8, ptr %0, i64 40
  store i32 %15, ptr %16, align 8, !tbaa !29
  ret void
}